; Function Attrs: mustprogress nounwind uwtable
define internal void @_ZN4node9inspector8protocol4cbor12_GLOBAL__N_111CBOREncoderISt6vectorIhSaIhEEE11HandleInt32Ei(ptr nocapture noundef nonnull readonly align 8 dereferenceable(48) %this, i32 noundef %value) unnamed_addr #1 align 2 {
entry:
  %status_ = getelementptr inbounds i8, ptr %this, i64 40
  %0 = load ptr, ptr %status_, align 8
  %1 = load i32, ptr %0, align 8
  %cmp.i = icmp eq i32 %1, 0
  br i1 %cmp.i, label %if.end, label %return

if.end:                                           ; preds = %entry
  %out_ = getelementptr inbounds i8, ptr %this, i64 8
  %2 = load ptr, ptr %out_, align 8
  %value.lobit.i.i = ashr i32 %value, 31
  %sub.sink.i.i = xor i32 %value.lobit.i.i, %value
  %value.lobit4.i.i = lshr i32 %value, 31
  %conv1.i.i = zext nneg i32 %sub.sink.i.i to i64
  tail call void @_ZN4node9inspector8protocol4cbor9internals19WriteTokenStartTmplISt6vectorIhSaIhEEEEvNS2_9MajorTypeEmPT_(i32 noundef %value.lobit4.i.i, i64 noundef %conv1.i.i, ptr noundef %2)
  br label %return

return:                                           ; preds = %entry, %if.end
  ret void
}